; Function Attrs: mustprogress nounwind uwtable
define void @_ZN5faiss24ProductAdditiveQuantizerD2Ev(ptr noundef nonnull align 8 dereferenceable(392) initializes((0, 8)) %0) unnamed_addr #1 align 2 personality ptr @__gxx_personality_v0 {
  store ptr getelementptr inbounds nuw inrange(-16, 64) (i8, ptr @_ZTVN5faiss24ProductAdditiveQuantizerE, i64 16), ptr %0, align 8, !tbaa !61
  %2 = getelementptr inbounds nuw i8, ptr %0, i64 368
  %3 = load ptr, ptr %2, align 8, !tbaa !51
  %4 = getelementptr inbounds nuw i8, ptr %0, i64 376
  %5 = load ptr, ptr %4, align 8, !tbaa !51
  %.not7 = icmp eq ptr %3, %5
  br i1 %.not7, label %._crit_edge, label %.lr.ph

._crit_edge.loopexit:                             ; preds = %19
  %.pre = load ptr, ptr %2, align 8, !tbaa !54
  br label %._crit_edge

._crit_edge:                                      ; preds = %._crit_edge.loopexit, %1
  %6 = phi ptr [ %.pre, %._crit_edge.loopexit ], [ %3, %1 ]
  %.not.i.i.i = icmp eq ptr %6, null
  br i1 %.not.i.i.i, label %_ZNSt6vectorIPN5faiss17AdditiveQuantizerESaIS2_EED2Ev.exit, label %7

7:                                                ; preds = %._crit_edge
  %8 = getelementptr inbounds nuw i8, ptr %0, i64 384
  %9 = load ptr, ptr %8, align 8, !tbaa !78
  %10 = ptrtoint ptr %9 to i64
  %11 = ptrtoint ptr %6 to i64
  %12 = sub i64 %10, %11
  tail call void @_ZdlPvm(ptr noundef nonnull %6, i64 noundef %12) #23
  br label %_ZNSt6vectorIPN5faiss17AdditiveQuantizerESaIS2_EED2Ev.exit

_ZNSt6vectorIPN5faiss17AdditiveQuantizerESaIS2_EED2Ev.exit: ; preds = %._crit_edge, %7
  tail call void @_ZN5faiss17AdditiveQuantizerD2Ev(ptr noundef nonnull align 8 dereferenceable(356) %0) #18
  ret void

.lr.ph:                                           ; preds = %1, %19
  %.sroa.04.08 = phi ptr [ %20, %19 ], [ %3, %1 ]
  %13 = load ptr, ptr %.sroa.04.08, align 8, !tbaa !55
  %14 = icmp eq ptr %13, null
  br i1 %14, label %19, label %15

15:                                               ; preds = %.lr.ph
  %16 = load ptr, ptr %13, align 8, !tbaa !61
  %17 = getelementptr inbounds nuw i8, ptr %16, i64 32
  %18 = load ptr, ptr %17, align 8
  tail call void %18(ptr noundef nonnull align 8 dereferenceable(356) %13) #18
  br label %19

19:                                               ; preds = %15, %.lr.ph
  %20 = getelementptr inbounds nuw i8, ptr %.sroa.04.08, i64 8
  %.not = icmp eq ptr %20, %5
  br i1 %.not, label %._crit_edge.loopexit, label %.lr.ph
}